target datalayout = "e-m:e-p270:32:32-p271:32:32-p272:64:64-i64:64-i128:128-f80:128-n8:16:32:64-S128"
target triple = "x86_64-pc-linux-gnu"

%struct.cmsysMD5_s = type { %struct.md5_state_s }
%struct.md5_state_s = type { [2 x i32], [4 x i32], [64 x i8] }

@md5_finish.pad = internal constant <{ i8, [63 x i8] }> <{ i8 -128, [63 x i8] zeroinitializer }>, align 16

; Function Attrs: nounwind uwtable
define internal void @md5_append(ptr noundef %0, ptr noundef %1, i64 noundef %2) #0 {
  %4 = alloca ptr, align 8
  %5 = alloca ptr, align 8
  %6 = alloca i64, align 8
  %7 = alloca ptr, align 8
  %8 = alloca i64, align 8
  %9 = alloca i64, align 8
  %10 = alloca i32, align 4
  %11 = alloca i32, align 4
  %12 = alloca i64, align 8
  store ptr %0, ptr %4, align 8, !tbaa !9
  store ptr %1, ptr %5, align 8, !tbaa !13
  store i64 %2, ptr %6, align 8, !tbaa !15
  call void @llvm.lifetime.start.p0(i64 8, ptr %7) #6
  %13 = load ptr, ptr %5, align 8, !tbaa !13
  store ptr %13, ptr %7, align 8, !tbaa !13
  call void @llvm.lifetime.start.p0(i64 8, ptr %8) #6
  %14 = load i64, ptr %6, align 8, !tbaa !15
  store i64 %14, ptr %8, align 8, !tbaa !15
  call void @llvm.lifetime.start.p0(i64 8, ptr %9) #6
  %15 = load ptr, ptr %4, align 8, !tbaa !9
  %16 = getelementptr inbounds nuw %struct.md5_state_s, ptr %15, i32 0, i32 0
  %17 = getelementptr inbounds [2 x i32], ptr %16, i64 0, i64 0
  %18 = load i32, ptr %17, align 4, !tbaa !11
  %19 = lshr i32 %18, 3
  %20 = and i32 %19, 63
  %21 = zext i32 %20 to i64
  store i64 %21, ptr %9, align 8, !tbaa !15
  call void @llvm.lifetime.start.p0(i64 4, ptr %10) #6
  %22 = load i64, ptr %6, align 8, !tbaa !15
  %23 = shl i64 %22, 3
  %24 = trunc i64 %23 to i32
  store i32 %24, ptr %10, align 4, !tbaa !11
  %25 = load i64, ptr %6, align 8, !tbaa !15
  %26 = icmp ule i64 %25, 0
  br i1 %26, label %27, label %28

27:                                               ; preds = %3
  store i32 1, ptr %11, align 4
  br label %118

28:                                               ; preds = %3
  %29 = load i64, ptr %6, align 8, !tbaa !15
  %30 = lshr i64 %29, 29
  %31 = trunc i64 %30 to i32
  %32 = load ptr, ptr %4, align 8, !tbaa !9
  %33 = getelementptr inbounds nuw %struct.md5_state_s, ptr %32, i32 0, i32 0
  %34 = getelementptr inbounds [2 x i32], ptr %33, i64 0, i64 1
  %35 = load i32, ptr %34, align 4, !tbaa !11
  %36 = add i32 %35, %31
  store i32 %36, ptr %34, align 4, !tbaa !11
  %37 = load i32, ptr %10, align 4, !tbaa !11
  %38 = load ptr, ptr %4, align 8, !tbaa !9
  %39 = getelementptr inbounds nuw %struct.md5_state_s, ptr %38, i32 0, i32 0
  %40 = getelementptr inbounds [2 x i32], ptr %39, i64 0, i64 0
  %41 = load i32, ptr %40, align 4, !tbaa !11
  %42 = add i32 %41, %37
  store i32 %42, ptr %40, align 4, !tbaa !11
  %43 = load ptr, ptr %4, align 8, !tbaa !9
  %44 = getelementptr inbounds nuw %struct.md5_state_s, ptr %43, i32 0, i32 0
  %45 = getelementptr inbounds [2 x i32], ptr %44, i64 0, i64 0
  %46 = load i32, ptr %45, align 4, !tbaa !11
  %47 = load i32, ptr %10, align 4, !tbaa !11
  %48 = icmp ult i32 %46, %47
  br i1 %48, label %49, label %55

49:                                               ; preds = %28
  %50 = load ptr, ptr %4, align 8, !tbaa !9
  %51 = getelementptr inbounds nuw %struct.md5_state_s, ptr %50, i32 0, i32 0
  %52 = getelementptr inbounds [2 x i32], ptr %51, i64 0, i64 1
  %53 = load i32, ptr %52, align 4, !tbaa !11
  %54 = add i32 %53, 1
  store i32 %54, ptr %52, align 4, !tbaa !11
  br label %55

55:                                               ; preds = %49, %28
  %56 = load i64, ptr %9, align 8, !tbaa !15
  %57 = icmp ne i64 %56, 0
  br i1 %57, label %58, label %96

58:                                               ; preds = %55
  call void @llvm.lifetime.start.p0(i64 8, ptr %12) #6
  %59 = load i64, ptr %9, align 8, !tbaa !15
  %60 = load i64, ptr %6, align 8, !tbaa !15
  %61 = add i64 %59, %60
  %62 = icmp ugt i64 %61, 64
  br i1 %62, label %63, label %66

63:                                               ; preds = %58
  %64 = load i64, ptr %9, align 8, !tbaa !15
  %65 = sub i64 64, %64
  br label %68

66:                                               ; preds = %58
  %67 = load i64, ptr %6, align 8, !tbaa !15
  br label %68

68:                                               ; preds = %66, %63
  %69 = phi i64 [ %65, %63 ], [ %67, %66 ]
  store i64 %69, ptr %12, align 8, !tbaa !15
  %70 = load ptr, ptr %4, align 8, !tbaa !9
  %71 = getelementptr inbounds nuw %struct.md5_state_s, ptr %70, i32 0, i32 2
  %72 = getelementptr inbounds [64 x i8], ptr %71, i64 0, i64 0
  %73 = load i64, ptr %9, align 8, !tbaa !15
  %74 = getelementptr inbounds nuw i8, ptr %72, i64 %73
  %75 = load ptr, ptr %7, align 8, !tbaa !13
  %76 = load i64, ptr %12, align 8, !tbaa !15
  call void @llvm.memcpy.p0.p0.i64(ptr align 1 %74, ptr align 1 %75, i64 %76, i1 false)
  %77 = load i64, ptr %9, align 8, !tbaa !15
  %78 = load i64, ptr %12, align 8, !tbaa !15
  %79 = add i64 %77, %78
  %80 = icmp ult i64 %79, 64
  br i1 %80, label %81, label %82

81:                                               ; preds = %68
  store i32 1, ptr %11, align 4
  br label %93

82:                                               ; preds = %68
  %83 = load i64, ptr %12, align 8, !tbaa !15
  %84 = load ptr, ptr %7, align 8, !tbaa !13
  %85 = getelementptr inbounds nuw i8, ptr %84, i64 %83
  store ptr %85, ptr %7, align 8, !tbaa !13
  %86 = load i64, ptr %12, align 8, !tbaa !15
  %87 = load i64, ptr %8, align 8, !tbaa !15
  %88 = sub i64 %87, %86
  store i64 %88, ptr %8, align 8, !tbaa !15
  %89 = load ptr, ptr %4, align 8, !tbaa !9
  %90 = load ptr, ptr %4, align 8, !tbaa !9
  %91 = getelementptr inbounds nuw %struct.md5_state_s, ptr %90, i32 0, i32 2
  %92 = getelementptr inbounds [64 x i8], ptr %91, i64 0, i64 0
  call void @md5_process(ptr noundef %89, ptr noundef %92)
  store i32 0, ptr %11, align 4
  br label %93

93:                                               ; preds = %82, %81
  call void @llvm.lifetime.end.p0(i64 8, ptr %12) #6
  %94 = load i32, ptr %11, align 4
  switch i32 %94, label %118 [
    i32 0, label %95
  ]

95:                                               ; preds = %93
  br label %96

96:                                               ; preds = %95, %55
  br label %97

97:                                               ; preds = %103, %96
  %98 = load i64, ptr %8, align 8, !tbaa !15
  %99 = icmp uge i64 %98, 64
  br i1 %99, label %100, label %108

100:                                              ; preds = %97
  %101 = load ptr, ptr %4, align 8, !tbaa !9
  %102 = load ptr, ptr %7, align 8, !tbaa !13
  call void @md5_process(ptr noundef %101, ptr noundef %102)
  br label %103

103:                                              ; preds = %100
  %104 = load ptr, ptr %7, align 8, !tbaa !13
  %105 = getelementptr inbounds i8, ptr %104, i64 64
  store ptr %105, ptr %7, align 8, !tbaa !13
  %106 = load i64, ptr %8, align 8, !tbaa !15
  %107 = sub i64 %106, 64
  store i64 %107, ptr %8, align 8, !tbaa !15
  br label %97, !llvm.loop !17

108:                                              ; preds = %97
  %109 = load i64, ptr %8, align 8, !tbaa !15
  %110 = icmp ne i64 %109, 0
  br i1 %110, label %111, label %117

111:                                              ; preds = %108
  %112 = load ptr, ptr %4, align 8, !tbaa !9
  %113 = getelementptr inbounds nuw %struct.md5_state_s, ptr %112, i32 0, i32 2
  %114 = getelementptr inbounds [64 x i8], ptr %113, i64 0, i64 0
  %115 = load ptr, ptr %7, align 8, !tbaa !13
  %116 = load i64, ptr %8, align 8, !tbaa !15
  call void @llvm.memcpy.p0.p0.i64(ptr align 4 %114, ptr align 1 %115, i64 %116, i1 false)
  br label %117

117:                                              ; preds = %111, %108
  store i32 0, ptr %11, align 4
  br label %118

118:                                              ; preds = %117, %93, %27
  call void @llvm.lifetime.end.p0(i64 4, ptr %10) #6
  call void @llvm.lifetime.end.p0(i64 8, ptr %9) #6
  call void @llvm.lifetime.end.p0(i64 8, ptr %8) #6
  call void @llvm.lifetime.end.p0(i64 8, ptr %7) #6
  %119 = load i32, ptr %11, align 4
  switch i32 %119, label %121 [
    i32 0, label %120
    i32 1, label %120
  ]

120:                                              ; preds = %118, %118
  ret void

121:                                              ; preds = %118
  unreachable
}

; Function Attrs: nounwind uwtable
define internal void @md5_finish(ptr noundef %0, ptr noundef %1) #0 {
  %3 = alloca ptr, align 8
  %4 = alloca ptr, align 8
  %5 = alloca [8 x i8], align 1
  %6 = alloca i32, align 4
  store ptr %0, ptr %3, align 8, !tbaa !9
  store ptr %1, ptr %4, align 8, !tbaa !13
  call void @llvm.lifetime.start.p0(i64 8, ptr %5) #6
  call void @llvm.lifetime.start.p0(i64 4, ptr %6) #6
  store i32 0, ptr %6, align 4, !tbaa !11
  br label %7

7:                                                ; preds = %26, %2
  %8 = load i32, ptr %6, align 4, !tbaa !11
  %9 = icmp slt i32 %8, 8
  br i1 %9, label %10, label %29

10:                                               ; preds = %7
  %11 = load ptr, ptr %3, align 8, !tbaa !9
  %12 = getelementptr inbounds nuw %struct.md5_state_s, ptr %11, i32 0, i32 0
  %13 = load i32, ptr %6, align 4, !tbaa !11
  %14 = ashr i32 %13, 2
  %15 = sext i32 %14 to i64
  %16 = getelementptr inbounds [2 x i32], ptr %12, i64 0, i64 %15
  %17 = load i32, ptr %16, align 4, !tbaa !11
  %18 = load i32, ptr %6, align 4, !tbaa !11
  %19 = and i32 %18, 3
  %20 = shl i32 %19, 3
  %21 = lshr i32 %17, %20
  %22 = trunc i32 %21 to i8
  %23 = load i32, ptr %6, align 4, !tbaa !11
  %24 = sext i32 %23 to i64
  %25 = getelementptr inbounds [8 x i8], ptr %5, i64 0, i64 %24
  store i8 %22, ptr %25, align 1, !tbaa !19
  br label %26

26:                                               ; preds = %10
  %27 = load i32, ptr %6, align 4, !tbaa !11
  %28 = add nsw i32 %27, 1
  store i32 %28, ptr %6, align 4, !tbaa !11
  br label %7, !llvm.loop !20

29:                                               ; preds = %7
  %30 = load ptr, ptr %3, align 8, !tbaa !9
  %31 = load ptr, ptr %3, align 8, !tbaa !9
  %32 = getelementptr inbounds nuw %struct.md5_state_s, ptr %31, i32 0, i32 0
  %33 = getelementptr inbounds [2 x i32], ptr %32, i64 0, i64 0
  %34 = load i32, ptr %33, align 4, !tbaa !11
  %35 = lshr i32 %34, 3
  %36 = sub i32 55, %35
  %37 = and i32 %36, 63
  %38 = add i32 %37, 1
  %39 = zext i32 %38 to i64
  call void @md5_append(ptr noundef %30, ptr noundef @md5_finish.pad, i64 noundef %39)
  %40 = load ptr, ptr %3, align 8, !tbaa !9
  %41 = getelementptr inbounds [8 x i8], ptr %5, i64 0, i64 0
  call void @md5_append(ptr noundef %40, ptr noundef %41, i64 noundef 8)
  store i32 0, ptr %6, align 4, !tbaa !11
  br label %42

42:                                               ; preds = %62, %29
  %43 = load i32, ptr %6, align 4, !tbaa !11
  %44 = icmp slt i32 %43, 16
  br i1 %44, label %45, label %65

45:                                               ; preds = %42
  %46 = load ptr, ptr %3, align 8, !tbaa !9
  %47 = getelementptr inbounds nuw %struct.md5_state_s, ptr %46, i32 0, i32 1
  %48 = load i32, ptr %6, align 4, !tbaa !11
  %49 = ashr i32 %48, 2
  %50 = sext i32 %49 to i64
  %51 = getelementptr inbounds [4 x i32], ptr %47, i64 0, i64 %50
  %52 = load i32, ptr %51, align 4, !tbaa !11
  %53 = load i32, ptr %6, align 4, !tbaa !11
  %54 = and i32 %53, 3
  %55 = shl i32 %54, 3
  %56 = lshr i32 %52, %55
  %57 = trunc i32 %56 to i8
  %58 = load ptr, ptr %4, align 8, !tbaa !13
  %59 = load i32, ptr %6, align 4, !tbaa !11
  %60 = sext i32 %59 to i64
  %61 = getelementptr inbounds i8, ptr %58, i64 %60
  store i8 %57, ptr %61, align 1, !tbaa !19
  br label %62

62:                                               ; preds = %45
  %63 = load i32, ptr %6, align 4, !tbaa !11
  %64 = add nsw i32 %63, 1
  store i32 %64, ptr %6, align 4, !tbaa !11
  br label %42, !llvm.loop !21

65:                                               ; preds = %42
  call void @llvm.lifetime.end.p0(i64 4, ptr %6) #6
  call void @llvm.lifetime.end.p0(i64 8, ptr %5) #6
  ret void
}

; Function Attrs: nounwind uwtable
define dso_local void @cmsysMD5_Finalize(ptr noundef %0, ptr noundef %1) #0 {
  %3 = alloca ptr, align 8
  %4 = alloca ptr, align 8
  store ptr %0, ptr %3, align 8, !tbaa !4
  store ptr %1, ptr %4, align 8, !tbaa !13
  %5 = load ptr, ptr %3, align 8, !tbaa !4
  %6 = getelementptr inbounds nuw %struct.cmsysMD5_s, ptr %5, i32 0, i32 0
  %7 = load ptr, ptr %4, align 8, !tbaa !13
  call void @md5_finish(ptr noundef %6, ptr noundef %7)
  ret void
}