; Function Attrs: nofree norecurse nosync nounwind memory(read, argmem: readwrite, inaccessiblemem: none) uwtable
define dso_local void @cmsysMD5_Finalize(ptr noundef %0, ptr noundef writeonly captures(none) %1) local_unnamed_addr #8 {
  %3 = alloca [8 x i8], align 1
  call void @llvm.lifetime.start.p0(i64 8, ptr nonnull %3) #14
  br label %4

4:                                                ; preds = %4, %2
  %indvars.iv.i = phi i64 [ 0, %2 ], [ %indvars.iv.next.i, %4 ]
  %5 = lshr i64 %indvars.iv.i, 2
  %6 = and i64 %5, 1073741823
  %7 = getelementptr inbounds nuw [2 x i32], ptr %0, i64 0, i64 %6
  %8 = load i32, ptr %7, align 4, !tbaa !4
  %indvars.iv.tr.i = trunc i64 %indvars.iv.i to i32
  %9 = shl i32 %indvars.iv.tr.i, 3
  %10 = and i32 %9, 24
  %11 = lshr i32 %8, %10
  %12 = trunc i32 %11 to i8
  %13 = getelementptr inbounds nuw [8 x i8], ptr %3, i64 0, i64 %indvars.iv.i
  store i8 %12, ptr %13, align 1, !tbaa !10
  %indvars.iv.next.i = add nuw nsw i64 %indvars.iv.i, 1
  %exitcond.not.i = icmp eq i64 %indvars.iv.next.i, 8
  br i1 %exitcond.not.i, label %14, label %4, !llvm.loop !11

14:                                               ; preds = %4
  %15 = load i32, ptr %0, align 4, !tbaa !4
  %16 = lshr i32 %15, 3
  %17 = sub nsw i32 55, %16
  %18 = and i32 %17, 63
  %19 = add nuw nsw i32 %18, 1
  %20 = zext nneg i32 %19 to i64
  %21 = and i32 %16, 63
  %22 = zext nneg i32 %21 to i64
  %23 = shl nuw nsw i32 %19, 3
  %24 = getelementptr inbounds nuw i8, ptr %0, i64 4
  %25 = load i32, ptr %24, align 4, !tbaa !4
  %26 = add i32 %23, %15
  store i32 %26, ptr %0, align 4, !tbaa !4
  %27 = icmp ult i32 %26, %23
  br i1 %27, label %28, label %30

28:                                               ; preds = %14
  %29 = add i32 %25, 1
  store i32 %29, ptr %24, align 4, !tbaa !4
  br label %30

30:                                               ; preds = %28, %14
  %.not.i.i = icmp eq i32 %21, 0
  br i1 %.not.i.i, label %42, label %31

31:                                               ; preds = %30
  %32 = add nuw nsw i64 %20, %22
  %33 = icmp samesign ugt i64 %32, 64
  %34 = sub nuw nsw i64 64, %22
  %35 = select i1 %33, i64 %34, i64 %20
  %36 = getelementptr inbounds nuw i8, ptr %0, i64 24
  %37 = getelementptr inbounds nuw i8, ptr %36, i64 %22
  tail call void @llvm.memcpy.p0.p0.i64(ptr noundef nonnull align 1 dereferenceable(1) %37, ptr noundef nonnull align 16 dereferenceable(1) @md5_finish.pad, i64 %35, i1 false)
  %38 = add nuw nsw i64 %35, %22
  %39 = icmp samesign ugt i64 %38, 63
  br i1 %39, label %.thread.i.i, label %md5_append.exit.i

.thread.i.i:                                      ; preds = %31
  %40 = getelementptr inbounds nuw i8, ptr @md5_finish.pad, i64 %35
  %41 = sub nsw i64 %20, %35
  tail call fastcc void @md5_process(ptr noundef nonnull %0, ptr noundef nonnull %36)
  br label %42

42:                                               ; preds = %.thread.i.i, %30
  %.039.i.i = phi i64 [ %20, %30 ], [ %41, %.thread.i.i ]
  %.0.i.i = phi ptr [ @md5_finish.pad, %30 ], [ %40, %.thread.i.i ]
  %43 = icmp ugt i64 %.039.i.i, 63
  br i1 %43, label %.lr.ph.i.i, label %._crit_edge.i.i

.lr.ph.i.i:                                       ; preds = %42, %.lr.ph.i.i
  %.248.i.i = phi ptr [ %44, %.lr.ph.i.i ], [ %.0.i.i, %42 ]
  %.24147.i.i = phi i64 [ %45, %.lr.ph.i.i ], [ %.039.i.i, %42 ]
  tail call fastcc void @md5_process(ptr noundef nonnull %0, ptr noundef %.248.i.i)
  %44 = getelementptr inbounds nuw i8, ptr %.248.i.i, i64 64
  %45 = add i64 %.24147.i.i, -64
  %46 = icmp ugt i64 %45, 63
  br i1 %46, label %.lr.ph.i.i, label %._crit_edge.i.i, !llvm.loop !8

._crit_edge.i.i:                                  ; preds = %.lr.ph.i.i, %42
  %.241.lcssa.i.i = phi i64 [ %.039.i.i, %42 ], [ %45, %.lr.ph.i.i ]
  %.2.lcssa.i.i = phi ptr [ %.0.i.i, %42 ], [ %44, %.lr.ph.i.i ]
  %.not44.i.i = icmp eq i64 %.241.lcssa.i.i, 0
  br i1 %.not44.i.i, label %md5_append.exit.i, label %47

47:                                               ; preds = %._crit_edge.i.i
  %48 = getelementptr inbounds nuw i8, ptr %0, i64 24
  tail call void @llvm.memcpy.p0.p0.i64(ptr nonnull align 4 %48, ptr align 1 %.2.lcssa.i.i, i64 %.241.lcssa.i.i, i1 false)
  br label %md5_append.exit.i

md5_append.exit.i:                                ; preds = %47, %._crit_edge.i.i, %31
  %49 = load i32, ptr %0, align 4, !tbaa !4
  %50 = lshr i32 %49, 3
  %51 = and i32 %50, 63
  %52 = zext nneg i32 %51 to i64
  %53 = load i32, ptr %24, align 4, !tbaa !4
  %54 = add i32 %49, 64
  store i32 %54, ptr %0, align 4, !tbaa !4
  %55 = icmp ugt i32 %49, -65
  br i1 %55, label %56, label %58

56:                                               ; preds = %md5_append.exit.i
  %57 = add i32 %53, 1
  store i32 %57, ptr %24, align 4, !tbaa !4
  br label %58

58:                                               ; preds = %56, %md5_append.exit.i
  %.not.i15.i = icmp eq i32 %51, 0
  br i1 %.not.i15.i, label %._crit_edge.i19.thread.i, label %59

59:                                               ; preds = %58
  %60 = icmp samesign ugt i32 %51, 56
  %61 = sub nuw nsw i64 64, %52
  %62 = select i1 %60, i64 %61, i64 8
  %63 = getelementptr inbounds nuw i8, ptr %0, i64 24
  %64 = getelementptr inbounds nuw i8, ptr %63, i64 %52
  call void @llvm.memcpy.p0.p0.i64(ptr noundef nonnull align 1 dereferenceable(1) %64, ptr noundef nonnull align 1 dereferenceable(1) %3, i64 %62, i1 false)
  %65 = add nuw nsw i64 %62, %52
  %66 = icmp samesign ugt i64 %65, 63
  br i1 %66, label %67, label %md5_append.exit26.i

67:                                               ; preds = %59
  %68 = getelementptr inbounds nuw i8, ptr %3, i64 %62
  %69 = sub nsw i64 8, %62
  tail call fastcc void @md5_process(ptr noundef nonnull %0, ptr noundef nonnull %63)
  %70 = icmp ugt i64 %69, 63
  br i1 %70, label %.lr.ph.i23.i, label %._crit_edge.i19.i

.lr.ph.i23.i:                                     ; preds = %67, %.lr.ph.i23.i
  %.248.i24.i = phi ptr [ %71, %.lr.ph.i23.i ], [ %68, %67 ]
  %.24147.i25.i = phi i64 [ %72, %.lr.ph.i23.i ], [ %69, %67 ]
  call fastcc void @md5_process(ptr noundef nonnull %0, ptr noundef nonnull %.248.i24.i)
  %71 = getelementptr inbounds nuw i8, ptr %.248.i24.i, i64 64
  %72 = add i64 %.24147.i25.i, -64
  %73 = icmp ugt i64 %72, 63
  br i1 %73, label %.lr.ph.i23.i, label %._crit_edge.i19.i, !llvm.loop !8

._crit_edge.i19.i:                                ; preds = %.lr.ph.i23.i, %67
  %.241.lcssa.i20.i = phi i64 [ %69, %67 ], [ %72, %.lr.ph.i23.i ]
  %.2.lcssa.i21.i = phi ptr [ %68, %67 ], [ %71, %.lr.ph.i23.i ]
  %.not44.i22.i = icmp eq i64 %.241.lcssa.i20.i, 0
  br i1 %.not44.i22.i, label %md5_append.exit26.i, label %._crit_edge.i19.thread.i

._crit_edge.i19.thread.i:                         ; preds = %._crit_edge.i19.i, %58
  %.2.lcssa.i2133.i = phi ptr [ %.2.lcssa.i21.i, %._crit_edge.i19.i ], [ %3, %58 ]
  %.241.lcssa.i2032.i = phi i64 [ %.241.lcssa.i20.i, %._crit_edge.i19.i ], [ 8, %58 ]
  %74 = getelementptr inbounds nuw i8, ptr %0, i64 24
  call void @llvm.memcpy.p0.p0.i64(ptr noundef nonnull align 4 dereferenceable(1) %74, ptr noundef nonnull align 1 dereferenceable(1) %.2.lcssa.i2133.i, i64 %.241.lcssa.i2032.i, i1 false)
  br label %md5_append.exit26.i

md5_append.exit26.i:                              ; preds = %._crit_edge.i19.thread.i, %._crit_edge.i19.i, %59
  %75 = getelementptr inbounds nuw i8, ptr %0, i64 8
  br label %76

76:                                               ; preds = %76, %md5_append.exit26.i
  %indvars.iv43.i = phi i64 [ 0, %md5_append.exit26.i ], [ %indvars.iv.next44.i, %76 ]
  %77 = lshr i64 %indvars.iv43.i, 2
  %78 = and i64 %77, 1073741823
  %79 = getelementptr inbounds nuw [4 x i32], ptr %75, i64 0, i64 %78
  %80 = load i32, ptr %79, align 4, !tbaa !4
  %indvars.iv43.tr.i = trunc i64 %indvars.iv43.i to i32
  %81 = shl i32 %indvars.iv43.tr.i, 3
  %82 = and i32 %81, 24
  %83 = lshr i32 %80, %82
  %84 = trunc i32 %83 to i8
  %85 = getelementptr inbounds nuw i8, ptr %1, i64 %indvars.iv43.i
  store i8 %84, ptr %85, align 1, !tbaa !10
  %indvars.iv.next44.i = add nuw nsw i64 %indvars.iv43.i, 1
  %exitcond46.not.i = icmp eq i64 %indvars.iv.next44.i, 16
  br i1 %exitcond46.not.i, label %md5_finish.exit, label %76, !llvm.loop !12

md5_finish.exit:                                  ; preds = %76
  call void @llvm.lifetime.end.p0(i64 8, ptr nonnull %3) #14
  ret void
}